target datalayout = "e-m:e-p270:32:32-p271:32:32-p272:64:64-i64:64-i128:128-f80:128-n8:16:32:64-S128"
target triple = "x86_64-pc-linux-gnu"

; Function Attrs: inlinehint mustprogress nounwind uwtable
define internal noundef signext i8 @_ZL9U_FAILURE10UErrorCode(i32 noundef %0) #1 {
  %2 = alloca i32, align 4
  store i32 %0, ptr %2, align 4, !tbaa !9
  %3 = load i32, ptr %2, align 4, !tbaa !9
  %4 = icmp sgt i32 %3, 0
  %5 = zext i1 %4 to i8
  ret i8 %5
}

; Function Attrs: mustprogress uwtable
define void @umutablecptrie_set_77(ptr noundef %0, i32 noundef %1, i32 noundef %2, ptr noundef %3) #0 {
  %5 = alloca ptr, align 8
  %6 = alloca i32, align 4
  %7 = alloca i32, align 4
  %8 = alloca ptr, align 8
  store ptr %0, ptr %5, align 8, !tbaa !35
  store i32 %1, ptr %6, align 4, !tbaa !3
  store i32 %2, ptr %7, align 4, !tbaa !3
  store ptr %3, ptr %8, align 8, !tbaa !7
  %9 = load ptr, ptr %8, align 8, !tbaa !7
  %10 = load i32, ptr %9, align 4, !tbaa !9
  %11 = call noundef signext i8 @_ZL9U_FAILURE10UErrorCode(i32 noundef %10)
  %12 = icmp ne i8 %11, 0
  br i1 %12, label %13, label %14

13:                                               ; preds = %4
  br label %19

14:                                               ; preds = %4
  %15 = load ptr, ptr %5, align 8, !tbaa !35
  %16 = load i32, ptr %6, align 4, !tbaa !3
  %17 = load i32, ptr %7, align 4, !tbaa !3
  %18 = load ptr, ptr %8, align 8, !tbaa !7
  call void @_ZN6icu_7712_GLOBAL__N_120MutableCodePointTrie3setEijR10UErrorCode(ptr noundef nonnull align 8 dereferenceable(69696) %15, i32 noundef %16, i32 noundef %17, ptr noundef nonnull align 4 dereferenceable(4) %18)
  br label %19

19:                                               ; preds = %14, %13
  ret void
}