; Function Attrs: mustprogress uwtable
define void @umutablecptrie_set_77(ptr noundef captures(none) %0, i32 noundef %1, i32 noundef %2, ptr noundef captures(none) %3) local_unnamed_addr #0 {
  %5 = load i32, ptr %3, align 4, !tbaa !3
  %6 = icmp slt i32 %5, 1
  br i1 %6, label %7, label %8

7:                                                ; preds = %4
  tail call fastcc void @_ZN6icu_7712_GLOBAL__N_120MutableCodePointTrie3setEijR10UErrorCode(ptr noundef nonnull align 8 dereferenceable(69696) %0, i32 noundef %1, i32 noundef %2, ptr noundef nonnull align 4 dereferenceable(4) %3)
  br label %8

8:                                                ; preds = %4, %7
  ret void
}